; Function Attrs: mustprogress uwtable
define internal fastcc void @_ZL12mkElimClauseRN6Gluco23vecIjEENS_3LitE(ptr nocapture noundef nonnull align 8 dereferenceable(16) %0, i32 %1) unnamed_addr #2 {
  %3 = getelementptr inbounds i8, ptr %0, i64 8
  %4 = load i32, ptr %3, align 8
  %5 = getelementptr inbounds i8, ptr %0, i64 12
  %6 = load i32, ptr %5, align 4
  %7 = icmp eq i32 %4, %6
  br i1 %7, label %8, label %._ZN6Gluco23vecIjE8capacityEi.exit_crit_edge.i

._ZN6Gluco23vecIjE8capacityEi.exit_crit_edge.i:   ; preds = %2
  %.pre.i = load ptr, ptr %0, align 8
  br label %_ZN6Gluco23vecIjE4pushERKj.exit

8:                                                ; preds = %2
  %9 = ashr i32 %4, 1
  %10 = and i32 %9, -2
  %11 = tail call i32 @llvm.smax.i32(i32 %10, i32 0)
  %12 = add nuw nsw i32 %11, 2
  %13 = sub nsw i32 2147483647, %4
  %14 = icmp ugt i32 %12, %13
  br i1 %14, label %26, label %15

15:                                               ; preds = %8
  %16 = load ptr, ptr %0, align 8
  %17 = add nsw i32 %12, %4
  store i32 %17, ptr %5, align 4
  %18 = sext i32 %17 to i64
  %19 = shl nsw i64 %18, 2
  %20 = tail call ptr @realloc(ptr noundef %16, i64 noundef %19) #26
  store ptr %20, ptr %0, align 8
  %21 = icmp eq ptr %20, null
  br i1 %21, label %22, label %._ZN6Gluco23vecIjE4pushERKj.exit_crit_edge

._ZN6Gluco23vecIjE4pushERKj.exit_crit_edge:       ; preds = %15
  %.pre = load i32, ptr %3, align 8
  br label %_ZN6Gluco23vecIjE4pushERKj.exit

22:                                               ; preds = %15
  %23 = tail call ptr @__errno_location() #22
  %24 = load i32, ptr %23, align 4
  %25 = icmp eq i32 %24, 12
  tail call void @llvm.assume(i1 %25)
  br label %26

26:                                               ; preds = %22, %8
  %27 = tail call ptr @__cxa_allocate_exception(i64 1) #23
  tail call void @__cxa_throw(ptr %27, ptr nonnull @_ZTIN6Gluco220OutOfMemoryExceptionE, ptr null) #24
  unreachable

_ZN6Gluco23vecIjE4pushERKj.exit:                  ; preds = %._ZN6Gluco23vecIjE4pushERKj.exit_crit_edge, %._ZN6Gluco23vecIjE8capacityEi.exit_crit_edge.i
  %28 = phi i32 [ %4, %._ZN6Gluco23vecIjE8capacityEi.exit_crit_edge.i ], [ %.pre, %._ZN6Gluco23vecIjE4pushERKj.exit_crit_edge ]
  %29 = phi ptr [ %.pre.i, %._ZN6Gluco23vecIjE8capacityEi.exit_crit_edge.i ], [ %20, %._ZN6Gluco23vecIjE4pushERKj.exit_crit_edge ]
  %30 = add nsw i32 %28, 1
  store i32 %30, ptr %3, align 8
  %31 = sext i32 %28 to i64
  %32 = getelementptr inbounds i32, ptr %29, i64 %31
  store i32 %1, ptr %32, align 4
  %33 = load i32, ptr %3, align 8
  %34 = load i32, ptr %5, align 4
  %35 = icmp eq i32 %33, %34
  br i1 %35, label %36, label %._ZN6Gluco23vecIjE8capacityEi.exit_crit_edge.i3

._ZN6Gluco23vecIjE8capacityEi.exit_crit_edge.i3:  ; preds = %_ZN6Gluco23vecIjE4pushERKj.exit
  %.pre.i4 = load ptr, ptr %0, align 8
  br label %_ZN6Gluco23vecIjE4pushERKj.exit5

36:                                               ; preds = %_ZN6Gluco23vecIjE4pushERKj.exit
  %37 = ashr i32 %33, 1
  %38 = and i32 %37, -2
  %39 = tail call i32 @llvm.smax.i32(i32 %38, i32 0)
  %40 = add nuw nsw i32 %39, 2
  %41 = sub nsw i32 2147483647, %33
  %42 = icmp ugt i32 %40, %41
  br i1 %42, label %54, label %43

43:                                               ; preds = %36
  %44 = load ptr, ptr %0, align 8
  %45 = add nsw i32 %40, %33
  store i32 %45, ptr %5, align 4
  %46 = sext i32 %45 to i64
  %47 = shl nsw i64 %46, 2
  %48 = tail call ptr @realloc(ptr noundef %44, i64 noundef %47) #26
  store ptr %48, ptr %0, align 8
  %49 = icmp eq ptr %48, null
  br i1 %49, label %50, label %._ZN6Gluco23vecIjE4pushERKj.exit5_crit_edge

._ZN6Gluco23vecIjE4pushERKj.exit5_crit_edge:      ; preds = %43
  %.pre7 = load i32, ptr %3, align 8
  br label %_ZN6Gluco23vecIjE4pushERKj.exit5

50:                                               ; preds = %43
  %51 = tail call ptr @__errno_location() #22
  %52 = load i32, ptr %51, align 4
  %53 = icmp eq i32 %52, 12
  tail call void @llvm.assume(i1 %53)
  br label %54

54:                                               ; preds = %50, %36
  %55 = tail call ptr @__cxa_allocate_exception(i64 1) #23
  tail call void @__cxa_throw(ptr %55, ptr nonnull @_ZTIN6Gluco220OutOfMemoryExceptionE, ptr null) #24
  unreachable

_ZN6Gluco23vecIjE4pushERKj.exit5:                 ; preds = %._ZN6Gluco23vecIjE4pushERKj.exit5_crit_edge, %._ZN6Gluco23vecIjE8capacityEi.exit_crit_edge.i3
  %56 = phi i32 [ %33, %._ZN6Gluco23vecIjE8capacityEi.exit_crit_edge.i3 ], [ %.pre7, %._ZN6Gluco23vecIjE4pushERKj.exit5_crit_edge ]
  %57 = phi ptr [ %.pre.i4, %._ZN6Gluco23vecIjE8capacityEi.exit_crit_edge.i3 ], [ %48, %._ZN6Gluco23vecIjE4pushERKj.exit5_crit_edge ]
  %58 = add nsw i32 %56, 1
  store i32 %58, ptr %3, align 8
  %59 = sext i32 %56 to i64
  %60 = getelementptr inbounds i32, ptr %57, i64 %59
  store i32 1, ptr %60, align 4
  ret void
}